---
triple:          'arm64-apple-darwin'
binary-path:     kafkatest_verifiable_client
relocations:
  - { offsetInCU: 0x3F, offset: 0x3F, size: 0x8, addend: 0x0, symName: __ZL12value_prefix, symObjAddr: 0xAE720, symBinAddr: 0x100198668, symSize: 0x0 }
  - { offsetInCU: 0xB3AB, offset: 0xB3AB, size: 0x8, addend: 0x0, symName: __ZNSt3__124__put_character_sequenceB7v160006IcNS_11char_traitsIcEEEERNS_13basic_ostreamIT_T0_EES7_PKS4_m, symObjAddr: 0x7284, symBinAddr: 0x100007E68, symSize: 0x168 }
  - { offsetInCU: 0xDA66, offset: 0xDA66, size: 0x8, addend: 0x0, symName: __ZNSt3__14endlB7v160006IcNS_11char_traitsIcEEEERNS_13basic_ostreamIT_T0_EES7_, symObjAddr: 0xFE4, symBinAddr: 0x100001BC8, symSize: 0x94 }
  - { offsetInCU: 0xDAF3, offset: 0xDAF3, size: 0x8, addend: 0x0, symName: __ZNSt3__127__tree_balance_after_insertB7v160006IPNS_16__tree_node_baseIPvEEEEvT_S5_, symObjAddr: 0x768C, symBinAddr: 0x100008270, symSize: 0x1A0 }
  - { offsetInCU: 0xF4BC, offset: 0xF4BC, size: 0x8, addend: 0x0, symName: __ZNSt3__17getlineB7v160006IcNS_11char_traitsIcEENS_9allocatorIcEEEERNS_13basic_istreamIT_T0_EES9_RNS_12basic_stringIS6_S7_T1_EES6_, symObjAddr: 0x5E40, symBinAddr: 0x100006A24, symSize: 0x188 }
  - { offsetInCU: 0xF7A6, offset: 0xF7A6, size: 0x8, addend: 0x0, symName: __ZNSt3__120__throw_length_errorB7v160006EPKc, symObjAddr: 0x6D28, symBinAddr: 0x10000790C, symSize: 0x50 }
  - { offsetInCU: 0xF7E3, offset: 0xF7E3, size: 0x8, addend: 0x0, symName: __ZNSt3__116__pad_and_outputB7v160006IcNS_11char_traitsIcEEEENS_19ostreambuf_iteratorIT_T0_EES6_PKS4_S8_S8_RNS_8ios_baseES4_, symObjAddr: 0x73EC, symBinAddr: 0x100007FD0, symSize: 0x194 }
  - { offsetInCU: 0x10315, offset: 0x10315, size: 0x8, addend: 0x0, symName: __ZSt28__throw_bad_array_new_lengthB7v160006v, symObjAddr: 0x6D9C, symBinAddr: 0x100007980, symSize: 0x28 }
  - { offsetInCU: 0x10565, offset: 0x10565, size: 0x8, addend: 0x0, symName: __ZL5state, symObjAddr: 0xAE738, symBinAddr: 0x100198680, symSize: 0x0 }
  - { offsetInCU: 0x10BD6, offset: 0x10BD6, size: 0x8, addend: 0x0, symName: __ZL19ex_offset_commit_cb, symObjAddr: 0xAE770, symBinAddr: 0x1001986B8, symSize: 0x0 }
  - { offsetInCU: 0x1364F, offset: 0x1364F, size: 0x8, addend: 0x0, symName: _main, symObjAddr: 0x1328, symBinAddr: 0x100001F0C, symSize: 0x3998 }
  - { offsetInCU: 0x13677, offset: 0x13677, size: 0x8, addend: 0x0, symName: __ZZ4mainE8delay_us, symObjAddr: 0xAE778, symBinAddr: 0x1001986C0, symSize: 0x0 }
  - { offsetInCU: 0x27089, offset: 0x27089, size: 0x8, addend: 0x0, symName: __ZL9verbosity, symObjAddr: 0x88C0, symBinAddr: 0x100194000, symSize: 0x0 }
  - { offsetInCU: 0x270A2, offset: 0x270A2, size: 0x8, addend: 0x0, symName: __ZL3run, symObjAddr: 0x88C4, symBinAddr: 0x100194004, symSize: 0x0 }
  - { offsetInCU: 0x270D9, offset: 0x270D9, size: 0x8, addend: 0x0, symName: __ZL18watchdog_last_kick, symObjAddr: 0xAE788, symBinAddr: 0x1001986D0, symSize: 0x0 }
  - { offsetInCU: 0x29FE3, offset: 0x29FE3, size: 0x8, addend: 0x0, symName: '__ZN3$_0D1Ev', symObjAddr: 0x0, symBinAddr: 0x100000BE4, symSize: 0x2C }
  - { offsetInCU: 0x2A105, offset: 0x2A105, size: 0x8, addend: 0x0, symName: __ZNSt3__16__treeINS_12__value_typeINS_12basic_stringIcNS_11char_traitsIcEENS_9allocatorIcEEEE10AssignmentEENS_19__map_value_compareIS7_S9_NS_4lessIS7_EELb1EEENS5_IS9_EEE7destroyEPNS_11__tree_nodeIS9_PvEE, symObjAddr: 0x54C8, symBinAddr: 0x1000060AC, symSize: 0x6C }
  - { offsetInCU: 0x2A507, offset: 0x2A507, size: 0x8, addend: 0x0, symName: __ZN21ExampleOffsetCommitCbD1Ev, symObjAddr: 0x2C, symBinAddr: 0x100000C10, symSize: 0x4 }
  - { offsetInCU: 0x2A6E8, offset: 0x2A6E8, size: 0x8, addend: 0x0, symName: __Z11msg_consumePN7RdKafka13KafkaConsumerEPNS_7MessageEPv, symObjAddr: 0x30, symBinAddr: 0x100000C14, symSize: 0x898 }
  - { offsetInCU: 0x2C069, offset: 0x2C069, size: 0x8, addend: 0x0, symName: __ZL3nowv, symObjAddr: 0xEA8, symBinAddr: 0x100001A8C, symSize: 0x13C }
  - { offsetInCU: 0x2C4CA, offset: 0x2C4CA, size: 0x8, addend: 0x0, symName: __ZL23report_records_consumedi, symObjAddr: 0x8C8, symBinAddr: 0x1000014AC, symSize: 0x304 }
  - { offsetInCU: 0x2CC85, offset: 0x2CC85, size: 0x8, addend: 0x0, symName: __ZL9do_commitPN7RdKafka13KafkaConsumerEi, symObjAddr: 0xBCC, symBinAddr: 0x1000017B0, symSize: 0x2DC }
  - { offsetInCU: 0x2D5D6, offset: 0x2D5D6, size: 0x8, addend: 0x0, symName: __ZN10Assignment4nameERKNSt3__112basic_stringIcNS0_11char_traitsIcEENS0_9allocatorIcEEEEi, symObjAddr: 0x1160, symBinAddr: 0x100001D44, symSize: 0xB0 }
  - { offsetInCU: 0x2D738, offset: 0x2D738, size: 0x8, addend: 0x0, symName: __ZNSt3__13mapINS_12basic_stringIcNS_11char_traitsIcEENS_9allocatorIcEEEE10AssignmentNS_4lessIS6_EENS4_INS_4pairIKS6_S7_EEEEEixERSB_, symObjAddr: 0x1084, symBinAddr: 0x100001C68, symSize: 0xDC }
  - { offsetInCU: 0x2DBAB, offset: 0x2DBAB, size: 0x8, addend: 0x0, symName: __ZN10Assignment5setupENSt3__112basic_stringIcNS0_11char_traitsIcEENS0_9allocatorIcEEEEi, symObjAddr: 0x1210, symBinAddr: 0x100001DF4, symSize: 0x118 }
  - { offsetInCU: 0x2DE0E, offset: 0x2DE0E, size: 0x8, addend: 0x0, symName: _main, symObjAddr: 0x1328, symBinAddr: 0x100001F0C, symSize: 0x3998 }
  - { offsetInCU: 0x2DF1F, offset: 0x2DF1F, size: 0x8, addend: 0x0, symName: __ZL23report_records_consumedi.cold.1, symObjAddr: 0x7A80, symBinAddr: 0x1001255B4, symSize: 0x28 }
  - { offsetInCU: 0x2E226, offset: 0x2E226, size: 0x8, addend: 0x0, symName: __ZNKSt3__112basic_stringIcNS_11char_traitsIcEENS_9allocatorIcEEE20__throw_length_errorB7v160006Ev, symObjAddr: 0x6D14, symBinAddr: 0x1000078F8, symSize: 0x14 }
  - { offsetInCU: 0x2E24F, offset: 0x2E24F, size: 0x8, addend: 0x0, symName: __ZNSt3__120__throw_length_errorB7v160006EPKc, symObjAddr: 0x6D28, symBinAddr: 0x10000790C, symSize: 0x50 }
  - { offsetInCU: 0x2E520, offset: 0x2E520, size: 0x8, addend: 0x0, symName: __ZNSt3__16__treeINS_12__value_typeINS_12basic_stringIcNS_11char_traitsIcEENS_9allocatorIcEEEE10AssignmentEENS_19__map_value_compareIS7_S9_NS_4lessIS7_EELb1EEENS5_IS9_EEE12__find_equalIS7_EERPNS_16__tree_node_baseIPvEERPNS_15__tree_end_nodeISK_EERKT_, symObjAddr: 0x7580, symBinAddr: 0x100008164, symSize: 0x10C }
  - { offsetInCU: 0x2E8C2, offset: 0x2E8C2, size: 0x8, addend: 0x0, symName: __ZNSt3__118basic_stringstreamIcNS_11char_traitsIcEENS_9allocatorIcEEEC1B7v160006Ev, symObjAddr: 0x5ABC, symBinAddr: 0x1000066A0, symSize: 0x130 }
  - { offsetInCU: 0x2E9D2, offset: 0x2E9D2, size: 0x8, addend: 0x0, symName: __ZNSt3__118basic_stringstreamIcNS_11char_traitsIcEENS_9allocatorIcEEED1Ev, symObjAddr: 0x5BEC, symBinAddr: 0x1000067D0, symSize: 0xB8 }
  - { offsetInCU: 0x2EBAC, offset: 0x2EBAC, size: 0x8, addend: 0x0, symName: __ZN10Assignment5setupENSt3__112basic_stringIcNS0_11char_traitsIcEENS0_9allocatorIcEEEEi.cold.1, symObjAddr: 0x7AA8, symBinAddr: 0x1001255DC, symSize: 0x28 }
  - { offsetInCU: 0x2EBC4, offset: 0x2EBC4, size: 0x8, addend: 0x0, symName: __ZN10Assignment5setupENSt3__112basic_stringIcNS0_11char_traitsIcEENS0_9allocatorIcEEEEi.cold.2, symObjAddr: 0x7AD0, symBinAddr: 0x100125604, symSize: 0x28 }
  - { offsetInCU: 0x2EBDC, offset: 0x2EBDC, size: 0x8, addend: 0x0, symName: __ZN10Assignment5setupENSt3__112basic_stringIcNS0_11char_traitsIcEENS0_9allocatorIcEEEEi.cold.3, symObjAddr: 0x7AF8, symBinAddr: 0x10012562C, symSize: 0x28 }
  - { offsetInCU: 0x2F6A0, offset: 0x2F6A0, size: 0x8, addend: 0x0, symName: __ZNSt3__16vectorINS_12basic_stringIcNS_11char_traitsIcEENS_9allocatorIcEEEENS4_IS6_EEE21__push_back_slow_pathIS6_EEvOT_, symObjAddr: 0x782C, symBinAddr: 0x100008410, symSize: 0x1DC }
  - { offsetInCU: 0x2FEDF, offset: 0x2FEDF, size: 0x8, addend: 0x0, symName: __ZNSt3__114basic_ifstreamIcNS_11char_traitsIcEEEC1EPKcj, symObjAddr: 0x5CA4, symBinAddr: 0x100006888, symSize: 0x110 }
  - { offsetInCU: 0x2FFC2, offset: 0x2FFC2, size: 0x8, addend: 0x0, symName: __ZNSt3__112basic_stringIcNS_11char_traitsIcEENS_9allocatorIcEEEC1B7v160006IDnEEPKc, symObjAddr: 0x4CC0, symBinAddr: 0x1000058A4, symSize: 0x9C }
  - { offsetInCU: 0x30345, offset: 0x30345, size: 0x8, addend: 0x0, symName: __ZL7sigtermi, symObjAddr: 0x4D5C, symBinAddr: 0x100005940, symSize: 0x16C }
  - { offsetInCU: 0x3036F, offset: 0x3036F, size: 0x8, addend: 0x0, symName: __ZNSt3__119basic_ostringstreamIcNS_11char_traitsIcEENS_9allocatorIcEEEC1B7v160006Ev, symObjAddr: 0x4F94, symBinAddr: 0x100005B78, symSize: 0xF0 }
  - { offsetInCU: 0x3042F, offset: 0x3042F, size: 0x8, addend: 0x0, symName: __ZL11errorStringRKNSt3__112basic_stringIcNS_11char_traitsIcEENS_9allocatorIcEEEES7_S7_PS6_S7_, symObjAddr: 0x5084, symBinAddr: 0x100005C68, symSize: 0x310 }
  - { offsetInCU: 0x31251, offset: 0x31251, size: 0x8, addend: 0x0, symName: __ZNSt3__119basic_ostringstreamIcNS_11char_traitsIcEENS_9allocatorIcEEED1Ev, symObjAddr: 0x5394, symBinAddr: 0x100005F78, symSize: 0xB4 }
  - { offsetInCU: 0x31412, offset: 0x31412, size: 0x8, addend: 0x0, symName: __ZNSt3__114basic_ifstreamIcNS_11char_traitsIcEEED1Ev, symObjAddr: 0x5DB4, symBinAddr: 0x100006998, symSize: 0x8C }
  - { offsetInCU: 0x31454, offset: 0x31454, size: 0x8, addend: 0x0, symName: __ZNSt3__16vectorINS_12basic_stringIcNS_11char_traitsIcEENS_9allocatorIcEEEENS4_IS6_EEED1B7v160006Ev, symObjAddr: 0x5454, symBinAddr: 0x100006038, symSize: 0x74 }
  - { offsetInCU: 0x3171E, offset: 0x3171E, size: 0x8, addend: 0x0, symName: __ZL7sigtermi, symObjAddr: 0x4D5C, symBinAddr: 0x100005940, symSize: 0x16C }
  - { offsetInCU: 0x31AEE, offset: 0x31AEE, size: 0x8, addend: 0x0, symName: __ZL11sigwatchdogi, symObjAddr: 0x4EC8, symBinAddr: 0x100005AAC, symSize: 0xCC }
  - { offsetInCU: 0x31EC8, offset: 0x31EC8, size: 0x8, addend: 0x0, symName: __ZN23ExampleDeliveryReportCbD1Ev, symObjAddr: 0x5448, symBinAddr: 0x10000602C, symSize: 0x4 }
  - { offsetInCU: 0x31EF4, offset: 0x31EF4, size: 0x8, addend: 0x0, symName: __ZN18ExampleRebalanceCbD1Ev, symObjAddr: 0x544C, symBinAddr: 0x100006030, symSize: 0x4 }
  - { offsetInCU: 0x31F20, offset: 0x31F20, size: 0x8, addend: 0x0, symName: __ZN14ExampleEventCbD1Ev, symObjAddr: 0x5450, symBinAddr: 0x100006034, symSize: 0x4 }
  - { offsetInCU: 0x3202A, offset: 0x3202A, size: 0x8, addend: 0x0, symName: __ZN21ExampleOffsetCommitCb16offset_commit_cbEN7RdKafka9ErrorCodeERNSt3__16vectorIPNS0_14TopicPartitionENS2_9allocatorIS5_EEEE, symObjAddr: 0x5534, symBinAddr: 0x100006118, symSize: 0x584 }
  - { offsetInCU: 0x333DB, offset: 0x333DB, size: 0x8, addend: 0x0, symName: __ZN21ExampleOffsetCommitCb16offset_commit_cbEN7RdKafka9ErrorCodeERNSt3__16vectorIPNS0_14TopicPartitionENS2_9allocatorIS5_EEEE.cold.1, symObjAddr: 0x7B20, symBinAddr: 0x100125654, symSize: 0x28 }
  - { offsetInCU: 0x333F3, offset: 0x333F3, size: 0x8, addend: 0x0, symName: __ZN21ExampleOffsetCommitCbD0Ev, symObjAddr: 0x5AB8, symBinAddr: 0x10000669C, symSize: 0x4 }
  - { offsetInCU: 0x33422, offset: 0x33422, size: 0x8, addend: 0x0, symName: __ZN21ExampleOffsetCommitCbD0Ev, symObjAddr: 0x5AB8, symBinAddr: 0x10000669C, symSize: 0x4 }
  - { offsetInCU: 0x335C2, offset: 0x335C2, size: 0x8, addend: 0x0, symName: __ZN14ExampleEventCb8event_cbERN7RdKafka5EventE, symObjAddr: 0x5FC8, symBinAddr: 0x100006BAC, symSize: 0x62C }
  - { offsetInCU: 0x3424A, offset: 0x3424A, size: 0x8, addend: 0x0, symName: __ZN14ExampleEventCbD0Ev, symObjAddr: 0x65F4, symBinAddr: 0x1000071D8, symSize: 0x4 }
  - { offsetInCU: 0x34279, offset: 0x34279, size: 0x8, addend: 0x0, symName: __ZN14ExampleEventCbD0Ev, symObjAddr: 0x65F4, symBinAddr: 0x1000071D8, symSize: 0x4 }
  - { offsetInCU: 0x34340, offset: 0x34340, size: 0x8, addend: 0x0, symName: __ZN23ExampleDeliveryReportCb5dr_cbERN7RdKafka7MessageE, symObjAddr: 0x65F8, symBinAddr: 0x1000071DC, symSize: 0x718 }
  - { offsetInCU: 0x36BE2, offset: 0x36BE2, size: 0x8, addend: 0x0, symName: __ZN23ExampleDeliveryReportCbD0Ev, symObjAddr: 0x6D10, symBinAddr: 0x1000078F4, symSize: 0x4 }
  - { offsetInCU: 0x36C11, offset: 0x36C11, size: 0x8, addend: 0x0, symName: __ZN23ExampleDeliveryReportCbD0Ev, symObjAddr: 0x6D10, symBinAddr: 0x1000078F4, symSize: 0x4 }
  - { offsetInCU: 0x36C24, offset: 0x36C24, size: 0x8, addend: 0x0, symName: __ZNSt12length_errorC1B7v160006EPKc, symObjAddr: 0x6D78, symBinAddr: 0x10000795C, symSize: 0x24 }
  - { offsetInCU: 0x36CAC, offset: 0x36CAC, size: 0x8, addend: 0x0, symName: __ZN18ExampleRebalanceCb12rebalance_cbEPN7RdKafka13KafkaConsumerENS0_9ErrorCodeERNSt3__16vectorIPNS0_14TopicPartitionENS4_9allocatorIS7_EEEE, symObjAddr: 0x6DC4, symBinAddr: 0x1000079A8, symSize: 0x32C }
  - { offsetInCU: 0x377B8, offset: 0x377B8, size: 0x8, addend: 0x0, symName: __ZN18ExampleRebalanceCb14part_list_jsonERKNSt3__16vectorIPN7RdKafka14TopicPartitionENS0_9allocatorIS4_EEEE, symObjAddr: 0x70F4, symBinAddr: 0x100007CD8, symSize: 0x190 }
  - { offsetInCU: 0x37B0F, offset: 0x37B0F, size: 0x8, addend: 0x0, symName: __ZN18ExampleRebalanceCbD0Ev, symObjAddr: 0x70F0, symBinAddr: 0x100007CD4, symSize: 0x4 }
  - { offsetInCU: 0x37B3E, offset: 0x37B3E, size: 0x8, addend: 0x0, symName: __ZN18ExampleRebalanceCbD0Ev, symObjAddr: 0x70F0, symBinAddr: 0x100007CD4, symSize: 0x4 }
  - { offsetInCU: 0x3824C, offset: 0x3824C, size: 0x8, addend: 0x0, symName: __ZNKSt3__16vectorINS_12basic_stringIcNS_11char_traitsIcEENS_9allocatorIcEEEENS4_IS6_EEE20__throw_length_errorB7v160006Ev, symObjAddr: 0x7A6C, symBinAddr: 0x100008650, symSize: 0x14 }
  - { offsetInCU: 0x38275, offset: 0x38275, size: 0x8, addend: 0x0, symName: __ZL23report_records_consumedi.cold.1, symObjAddr: 0x7A80, symBinAddr: 0x1001255B4, symSize: 0x28 }
  - { offsetInCU: 0x38280, offset: 0x38280, size: 0x8, addend: 0x0, symName: __ZNSt3__114__split_bufferINS_12basic_stringIcNS_11char_traitsIcEENS_9allocatorIcEEEERNS4_IS6_EEED1Ev, symObjAddr: 0x7A08, symBinAddr: 0x1000085EC, symSize: 0x64 }
...
